(dp0
S'PRP$'
p1
F0.0009527439024390244
sS'VBG'
p2
F0.0013973577235772358
sS'FW'
p3
F0.002223069105691057
sS'VBN'
p4
F6.351626016260163e-05
sS'VBP'
p5
F0.044334349593495935
sS'WDT'
p6
F0.009463922764227643
sS'HYPH'
p7
F6.351626016260163e-05
sS'JJ'
p8
F0.01918191056910569
sS'WP'
p9
F0.03398119918699187
sS'VBZ'
p10
F0.027121443089430895
sS'DT'
p11
F0.048208841463414635
sS'RP'
p12
F0.0009527439024390244
sS'NN'
p13
F0.04643038617886179
sS'VBD'
p14
F0.0031122967479674797
sS'POS'
p15
F6.351626016260163e-05
sS'TO'
p16
F0.0036839430894308944
sS'LS'
p17
F0.0006351626016260162
sS'RB'
p18
F0.03976117886178862
sS'NNS'
p19
F0.0032393292682926828
sS'PRP'
p20
F0.3508638211382114
sS'VB'
p21
F0.11801321138211382
sS'WRB'
p22
F0.053671239837398375
sS'CC'
p23
F0.0015879065040650406
sS'PDT'
p24
F0.0003175813008130081
sS'RBS'
p25
F6.351626016260163e-05
sS'RBR'
p26
F0.00025406504065040653
sS'CD'
p27
F0.013401930894308942
sS'EX'
p28
F0.0005081300813008131
sS'IN'
p29
F0.015752032520325202
sS'MD'
p30
F0.036839430894308946
sS'JJS'
p31
F0.0006351626016260162
sS'JJR'
p32
F0.006034044715447154
sS'UH'
p33
F0.11540904471544715
sS'NNP'
p34
F0.0017784552845528454
s.