(dp0
S'PRP$'
p1
(dp2
S'PRP$'
p3
F0.0032679738562091504
sS'VBG'
p4
F0.0032679738562091504
sS'FW'
p5
F0.0032679738562091504
sS'VBN'
p6
F0.0032679738562091504
sS'VBP'
p7
F0.006535947712418301
sS'WDT'
p8
F0.0032679738562091504
sS'HYPH'
p9
F0.0032679738562091504
sS'JJ'
p10
F0.11437908496732026
sS'WP'
p11
F0.0032679738562091504
sS'VBZ'
p12
F0.0032679738562091504
sS'DT'
p13
F0.029411764705882353
sS'RP'
p14
F0.0032679738562091504
sS'NN'
p15
F0.6405228758169934
sS'VBD'
p16
F0.0032679738562091504
sS'POS'
p17
F0.0032679738562091504
sS'TO'
p18
F0.0032679738562091504
sS'PRP'
p19
F0.0032679738562091504
sS'RB'
p20
F0.0032679738562091504
sS'NNS'
p21
F0.10784313725490197
sS'NNP'
p22
F0.0032679738562091504
sS'VB'
p23
F0.0032679738562091504
sS'WRB'
p24
F0.0032679738562091504
sS'CC'
p25
F0.0032679738562091504
sS'LS'
p26
F0.0032679738562091504
sS'PDT'
p27
F0.0032679738562091504
sS'RBS'
p28
F0.0032679738562091504
sS'RBR'
p29
F0.0032679738562091504
sS'CD'
p30
F0.0032679738562091504
sS'EX'
p31
F0.0032679738562091504
sS'IN'
p32
F0.0032679738562091504
sS'MD'
p33
F0.0032679738562091504
sS'JJS'
p34
F0.0032679738562091504
sS'JJR'
p35
F0.0032679738562091504
sS'UH'
p36
F0.00980392156862745
ssS'VBG'
p37
(dp38
S'PRP$'
p39
F0.003827751196172249
sS'VBG'
p40
F0.007655502392344498
sg5
F0.0009569377990430622
sg6
F0.0009569377990430622
sS'VBP'
p41
F0.0009569377990430622
sg8
F0.0009569377990430622
sS'JJ'
p42
F0.0660287081339713
sS'WP'
p43
F0.0019138755980861245
sg12
F0.0009569377990430622
sS'DT'
p44
F0.0430622009569378
sS'RP'
p45
F0.009569377990430622
sS'NN'
p46
F0.3090909090909091
sg16
F0.0009569377990430622
sg17
F0.0009569377990430622
sS'TO'
p47
F0.03444976076555024
sS'HYPH'
p48
F0.010526315789473684
sS'RB'
p49
F0.06124401913875598
sS'NNS'
p50
F0.0009569377990430622
sS'PRP'
p51
F0.004784688995215311
sS'VB'
p52
F0.003827751196172249
sS'WRB'
p53
F0.0019138755980861245
sg25
F0.0009569377990430622
sg26
F0.0009569377990430622
sg27
F0.0009569377990430622
sg28
F0.0009569377990430622
sg29
F0.0009569377990430622
sS'CD'
p54
F0.0028708133971291866
sg31
F0.0009569377990430622
sS'IN'
p55
F0.37894736842105264
sg33
F0.0009569377990430622
sg34
F0.0009569377990430622
sS'JJR'
p56
F0.01818181818181818
sS'UH'
p57
F0.02583732057416268
sg22
F0.0009569377990430622
ssS'FW'
p58
(dp59
g3
F0.0013123359580052493
sg4
F0.0013123359580052493
sg16
F0.0013123359580052493
sS'VBN'
p60
F0.01837270341207349
sS'VBP'
p61
F0.027559055118110236
sS'WDT'
p62
F0.007874015748031496
sS'JJ'
p63
F0.04068241469816273
sS'WP'
p64
F0.006561679790026247
sg12
F0.0013123359580052493
sS'DT'
p65
F0.0013123359580052493
sg14
F0.0013123359580052493
sS'NN'
p66
F0.14304461942257218
sS'FW'
p67
F0.494750656167979
sS'POS'
p68
F0.08267716535433071
sg18
F0.0013123359580052493
sS'HYPH'
p69
F0.03937007874015748
sg20
F0.0013123359580052493
sg50
F0.0013123359580052493
sS'PRP'
p70
F0.010498687664041995
sS'VB'
p71
F0.051181102362204724
sS'WRB'
p72
F0.009186351706036745
sg25
F0.0013123359580052493
sg26
F0.0013123359580052493
sg27
F0.0013123359580052493
sg28
F0.0013123359580052493
sg29
F0.0013123359580052493
sg30
F0.0013123359580052493
sg31
F0.0013123359580052493
sg32
F0.0013123359580052493
sS'MD'
p73
F0.013123359580052493
sg34
F0.0013123359580052493
sg35
F0.0013123359580052493
sS'UH'
p74
F0.028871391076115485
sg22
F0.0013123359580052493
ssS'VBN'
p75
(dp76
g3
F0.0023094688221709007
sg4
F0.0023094688221709007
sg5
F0.0023094688221709007
sg6
F0.0023094688221709007
sS'VBP'
p77
F0.004618937644341801
sg8
F0.0023094688221709007
sS'JJ'
p78
F0.004618937644341801
sS'WP'
p79
F0.004618937644341801
sS'VBZ'
p80
F0.009237875288683603
sS'DT'
p81
F0.11778290993071594
sg14
F0.0023094688221709007
sS'NN'
p82
F0.28868360277136257
sg16
F0.0023094688221709007
sg17
F0.0023094688221709007
sS'TO'
p83
F0.009237875288683603
sS'HYPH'
p84
F0.011547344110854504
sS'RB'
p85
F0.03002309468822171
sS'NNS'
p86
F0.020785219399538105
sS'PRP'
p87
F0.07621247113163972
sS'VB'
p88
F0.023094688221709007
sS'WRB'
p89
F0.07852193995381063
sS'CC'
p90
F0.013856812933025405
sg26
F0.0023094688221709007
sg27
F0.0023094688221709007
sg28
F0.0023094688221709007
sg29
F0.0023094688221709007
sS'CD'
p91
F0.013856812933025405
sg31
F0.0023094688221709007
sS'IN'
p92
F0.13625866050808313
sS'MD'
p93
F0.016166281755196306
sg34
F0.0023094688221709007
sg35
F0.0023094688221709007
sS'UH'
p94
F0.10392609699769054
sg22
F0.0023094688221709007
ssS'VBP'
p95
(dp96
S'PRP$'
p97
F0.002363667060611177
sg4
F0.0552085092014182
sg5
F0.00016883336147222692
sg6
F0.01148066858011143
sg41
F0.00016883336147222692
sg8
F0.00016883336147222692
sS'JJ'
p98
F0.11531318588553098
sS'WP'
p99
F0.0015195002532500423
sS'VBZ'
p100
F0.003714333952388992
sS'DT'
p101
F0.1110923518487253
sS'RP'
p102
F0.0027013337835556307
sS'NN'
p103
F0.04794867465811244
sg16
F0.00016883336147222692
sS'POS'
p104
F0.0020260003376667227
sS'TO'
p105
F0.25780854296809047
sS'PRP'
p106
F0.14975519162586526
sS'RB'
p107
F0.12848218808036468
sS'NNS'
p108
F0.0175586695931116
sg9
F0.00016883336147222692
sS'VB'
p109
F0.003714333952388992
sS'WRB'
p110
F0.00033766672294445384
sg25
F0.00016883336147222692
sg26
F0.00016883336147222692
sS'PDT'
p111
F0.0005065000844166807
sg28
F0.00016883336147222692
sg29
F0.00016883336147222692
sS'CD'
p112
F0.005571500928583488
sg31
F0.0395070065845011
sS'IN'
p113
F0.021104170184028364
sS'MD'
p114
F0.0040520006753334455
sg34
F0.00016883336147222692
sS'JJR'
p115
F0.008104001350666891
sS'UH'
p116
F0.008272834712139118
sg22
F0.00016883336147222692
ssS'WDT'
p117
(dp118
g3
F0.0015923566878980893
sg4
F0.0015923566878980893
sg5
F0.0015923566878980893
sg6
F0.0015923566878980893
sS'VBP'
p119
F0.16878980891719744
sg8
F0.0015923566878980893
sS'JJ'
p120
F0.0015923566878980893
sg11
F0.0015923566878980893
sS'VBZ'
p121
F0.37898089171974525
sS'DT'
p122
F0.012738853503184714
sg14
F0.0015923566878980893
sS'NN'
p123
F0.1480891719745223
sS'VBD'
p124
F0.022292993630573247
sg17
F0.0015923566878980893
sg18
F0.0015923566878980893
sg9
F0.0015923566878980893
sg20
F0.0015923566878980893
sg50
F0.0732484076433121
sS'PRP'
p125
F0.07006369426751592
sg23
F0.0015923566878980893
sS'WRB'
p126
F0.004777070063694267
sg25
F0.0015923566878980893
sg26
F0.0015923566878980893
sg27
F0.0015923566878980893
sg28
F0.0015923566878980893
sg29
F0.0015923566878980893
sS'CD'
p127
F0.022292993630573247
sg31
F0.0015923566878980893
sS'IN'
p128
F0.05573248407643312
sg33
F0.0015923566878980893
sg34
F0.0015923566878980893
sg35
F0.0015923566878980893
sS'UH'
p129
F0.006369426751592357
sg22
F0.0015923566878980893
ssS'JJ'
p130
(dp131
g3
F0.00012548625925461163
sS'VBG'
p132
F0.0016313213703099511
sS'VBD'
p133
F0.0005019450370184465
sS'VBN'
p134
F0.002007780148073786
sS'VBP'
p135
F0.0016313213703099511
sS'WDT'
p136
F0.0008784038147822813
sS'JJ'
p137
F0.057096247960848286
sS'WP'
p138
F0.003513615259129125
sS'VBZ'
p139
F0.01167022211067888
sS'DT'
p140
F0.007152716777512862
sg14
F0.00012548625925461163
sS'NN'
p141
F0.5586648262015309
sS'FW'
p142
F0.0011293763332915045
sS'POS'
p143
F0.003011670222110679
sS'TO'
p144
F0.03965365792445727
sS'PRP'
p145
F0.047559292257497804
sS'RB'
p146
F0.022587526665830093
sS'NNS'
p147
F0.0766721044045677
sS'HYPH'
p148
F0.005395909147948299
sS'VB'
p149
F0.00464299159242063
sS'WRB'
p150
F0.008282093110804366
sS'CC'
p151
F0.0335048312209813
sg26
F0.00012548625925461163
sg27
F0.00012548625925461163
sg28
F0.00012548625925461163
sg29
F0.00012548625925461163
sS'CD'
p152
F0.005521395407202911
sS'EX'
p153
F0.0005019450370184465
sS'IN'
p154
F0.07378592044171163
sS'MD'
p155
F0.003011670222110679
sS'JJS'
p156
F0.0012548625925461162
sS'JJR'
p157
F0.003011670222110679
sS'UH'
p158
F0.02183460911030242
sS'NNP'
p159
F0.0031371564813652904
ssS'WP'
p160
(dp161
g3
F0.0012690355329949238
sg4
F0.0012690355329949238
sg16
F0.0012690355329949238
sg6
F0.0012690355329949238
sS'VBP'
p162
F0.19416243654822335
sg8
F0.0012690355329949238
sg9
F0.0012690355329949238
sS'JJ'
p163
F0.01649746192893401
sg11
F0.0012690355329949238
sS'VBZ'
p164
F0.25253807106598986
sS'DT'
p165
F0.0025380710659898475
sg14
F0.0012690355329949238
sS'NN'
p166
F0.08883248730964467
sg5
F0.0012690355329949238
sg17
F0.0012690355329949238
sg18
F0.0012690355329949238
sS'PRP'
p167
F0.050761421319796954
sS'RB'
p168
F0.0025380710659898475
sS'NNS'
p169
F0.0532994923857868
sg22
F0.0012690355329949238
sg23
F0.0012690355329949238
sg24
F0.0012690355329949238
sg25
F0.0012690355329949238
sg26
F0.0012690355329949238
sg27
F0.0012690355329949238
sg28
F0.0012690355329949238
sg29
F0.0012690355329949238
sg30
F0.0012690355329949238
sg31
F0.0012690355329949238
sS'IN'
p170
F0.28553299492385786
sS'MD'
p171
F0.02284263959390863
sg34
F0.0012690355329949238
sg35
F0.0012690355329949238
sS'UH'
p172
F0.0012690355329949238
ssS'VBZ'
p173
(dp174
S'PRP$'
p175
F0.0024390243902439024
sS'VBG'
p176
F0.01991869918699187
sS'FW'
p177
F0.00853658536585366
sS'VBN'
p178
F0.032520325203252036
sS'VBP'
p179
F0.0012195121951219512
sg8
F0.0004065040650406504
sg9
F0.0004065040650406504
sS'JJ'
p180
F0.13333333333333333
sS'WP'
p181
F0.005691056910569106
sS'VBZ'
p182
F0.004878048780487805
sS'DT'
p183
F0.21991869918699186
sg14
F0.0004065040650406504
sS'NN'
p184
F0.07357723577235772
sg16
F0.0004065040650406504
sg17
F0.0004065040650406504
sS'TO'
p185
F0.01097560975609756
sS'PRP'
p186
F0.044715447154471545
sS'RB'
p187
F0.183739837398374
sS'NNS'
p188
F0.020731707317073172
sS'NNP'
p189
F0.02886178861788618
sS'VB'
p190
F0.01991869918699187
sS'WRB'
p191
F0.0020325203252032522
sg25
F0.0004065040650406504
sg26
F0.0004065040650406504
sg27
F0.0004065040650406504
sg28
F0.0004065040650406504
sS'RBR'
p192
F0.0016260162601626016
sS'CD'
p193
F0.02032520325203252
sS'EX'
p194
F0.05569105691056911
sS'IN'
p195
F0.04878048780487805
sg33
F0.0004065040650406504
sS'JJS'
p196
F0.004878048780487805
sS'JJR'
p197
F0.016260162601626018
sS'UH'
p198
F0.03536585365853658
ssS'DT'
p199
(dp200
g3
F0.00011664528169835531
sS'VBG'
p201
F0.005132392394727633
sS'FW'
p202
F0.0009331622535868425
sS'VBN'
p203
F0.0020996150705703954
sS'VBP'
p204
F0.004782456549632568
sS'WDT'
p205
F0.00046658112679342123
sg120
F0.23259069170652047
sS'WP'
p206
F0.0006998716901901318
sS'VBZ'
p207
F0.012714335705120728
sS'DT'
p208
F0.004432520704537502
sS'RP'
p209
F0.0003499358450950659
sS'NN'
p210
F0.567945876589292
sS'VBD'
p211
F0.001516388662078619
sS'POS'
p212
F0.001166452816983553
sg18
F0.00011664528169835531
sg9
F0.006882071620202963
sS'RB'
p213
F0.00921497725417007
sS'NNS'
p214
F0.03324390528403126
sS'NNP'
p215
F0.002682841479062172
sS'VB'
p216
F0.001866324507173685
sS'WRB'
p217
F0.0008165169718884871
sg25
F0.00011664528169835531
sg26
F0.00011664528169835531
sg27
F0.00011664528169835531
sg28
F0.002216260352268751
sg29
F0.0029161320424588824
sS'CD'
p218
F0.014813950775691124
sS'PRP'
p219
F0.005249037676425989
sg31
F0.00011664528169835531
sS'IN'
p220
F0.005365682958124344
sS'MD'
p221
F0.006998716901901318
sg34
F0.021929312959290796
sS'JJR'
p222
F0.03581010148139508
sS'UH'
p223
F0.014464014930596058
ssS'RP'
p224
(dp225
g3
F0.000984251968503937
sS'VBG'
p226
F0.001968503937007874
sg5
F0.000984251968503937
sg6
F0.000984251968503937
sS'VBP'
p227
F0.022637795275590553
sg117
F0.002952755905511811
sS'JJ'
p228
F0.01673228346456693
sS'WP'
p229
F0.010826771653543307
sS'VBZ'
p230
F0.003937007874015748
sS'DT'
p231
F0.022637795275590553
sg14
F0.000984251968503937
sS'NN'
p232
F0.04822834645669291
sg16
F0.000984251968503937
sg17
F0.000984251968503937
sS'TO'
p233
F0.017716535433070866
sS'PRP'
p234
F0.1594488188976378
sS'RB'
p235
F0.028543307086614175
sg50
F0.000984251968503937
sg9
F0.000984251968503937
sS'VB'
p236
F0.30413385826771655
sS'WRB'
p237
F0.011811023622047244
sS'CC'
p238
F0.015748031496062992
sg26
F0.000984251968503937
sg27
F0.000984251968503937
sg28
F0.000984251968503937
sg29
F0.000984251968503937
sS'CD'
p239
F0.004921259842519685
sg31
F0.000984251968503937
sS'IN'
p240
F0.21456692913385828
sS'MD'
p241
F0.014763779527559055
sg34
F0.000984251968503937
sS'JJR'
p242
F0.006889763779527559
sS'UH'
p243
F0.07677165354330709
sg22
F0.000984251968503937
ssS'NN'
p244
(dp245
S'PRP$'
p246
F0.0006191439303256698
sS'VBG'
p247
F0.002476575721302679
sS'FW'
p248
F0.003384653485780328
sS'VBN'
p249
F0.0021463656251289884
sS'VBP'
p250
F0.026334255169851817
sg8
F0.01601518966442399
sS'JJ'
p251
F0.020927064845007635
sS'WP'
p252
F0.013621166467164733
sS'VBZ'
p253
F0.03070953894415322
sS'DT'
p254
F0.022041523919593842
sS'RP'
p255
F0.0008668015024559376
sS'NN'
p256
F0.1955669294588682
sS'VBD'
p257
F0.001444669170759896
sS'POS'
p258
F0.02389895571057085
sS'TO'
p259
F0.011887563462252858
sS'PRP'
p260
F0.14719115036942254
sS'RB'
p261
F0.04664217608453378
sS':'
p262
F0.0002476575721302679
sS'NNS'
p263
F0.019276014364139185
sS'HYPH'
p264
F0.02167003756139844
sS'VB'
p265
F0.03855202872827837
sS'WRB'
p266
F0.02394023197259256
sg25
F0.04866471292359764
sg26
F8.255252404342263e-05
sS'PDT'
p267
F0.00020638131010855657
sg28
F4.127626202171132e-05
sS'RBR'
p268
F0.0012795641226730507
sS'CD'
p269
F0.005531019110909316
sS'EX'
p270
F0.0007429727163908036
sS'IN'
p271
F0.17596070499855532
sS'MD'
p272
F0.030915920254261774
sS'JJS'
p273
F0.00041276262021711313
sS'JJR'
p274
F0.005324637800800759
sg172
F0.05989185619350312
sS'NNP'
p275
F0.0014859454327816072
ssS'VBD'
p276
(dp277
S'PRP$'
p278
F0.009950248756218905
sS'VBG'
p279
F0.029850746268656716
sg5
F0.001658374792703151
sg6
F0.001658374792703151
sS'VBP'
p280
F0.003316749585406302
sg8
F0.001658374792703151
sS'JJ'
p281
F0.029850746268656716
sg11
F0.001658374792703151
sS'VBZ'
p282
F0.014925373134328358
sS'DT'
p283
F0.17081260364842454
sS'RP'
p284
F0.03316749585406302
sS'NN'
p285
F0.0945273631840796
sg16
F0.001658374792703151
sg17
F0.001658374792703151
sS'TO'
p286
F0.05970149253731343
sS'PRP'
p287
F0.12271973466003316
sS'RB'
p288
F0.16086235489220563
sS'NNS'
p289
F0.01658374792703151
sg9
F0.001658374792703151
sS'VB'
p290
F0.024875621890547265
sS'WRB'
p291
F0.013266998341625208
sg25
F0.001658374792703151
sg26
F0.001658374792703151
sg27
F0.001658374792703151
sS'RBS'
p292
F0.028192371475953566
sg29
F0.001658374792703151
sS'CD'
p293
F0.02155887230514096
sg31
F0.001658374792703151
sS'IN'
p294
F0.0779436152570481
sS'MD'
p295
F0.014925373134328358
sg34
F0.001658374792703151
sS'JJR'
p296
F0.03648424543946932
sS'UH'
p297
F0.013266998341625208
sg22
F0.001658374792703151
ssS'POS'
p298
(dp299
g3
F0.0009727626459143969
sS'VBG'
p300
F0.016536964980544747
sS'FW'
p301
F0.03988326848249027
sS'VBN'
p302
F0.005836575875486381
sS'VBP'
p303
F0.0029182879377431907
sg8
F0.0009727626459143969
sS'JJ'
p304
F0.06712062256809338
sS'WP'
p305
F0.013618677042801557
sS'VBZ'
p306
F0.04377431906614786
sS'DT'
p307
F0.009727626459143969
sg14
F0.0009727626459143969
sS'NN'
p308
F0.5739299610894941
sg16
F0.0009727626459143969
sg17
F0.0009727626459143969
sg18
F0.0009727626459143969
sg9
F0.0009727626459143969
sg20
F0.0009727626459143969
sS'NNS'
p309
F0.005836575875486381
sS'PRP'
p310
F0.03599221789883268
sS'VB'
p311
F0.0622568093385214
sS'WRB'
p312
F0.017509727626459144
sS'CC'
p313
F0.005836575875486381
sg26
F0.0009727626459143969
sg27
F0.0009727626459143969
sg28
F0.0009727626459143969
sg29
F0.0009727626459143969
sg30
F0.0009727626459143969
sg31
F0.0009727626459143969
sS'IN'
p314
F0.03404669260700389
sS'MD'
p315
F0.013618677042801557
sg34
F0.0009727626459143969
sg35
F0.0009727626459143969
sS'UH'
p316
F0.0311284046692607
sS'NNP'
p317
F0.0048638132295719845
ssS'TO'
p318
(dp319
g3
F0.00019179133103183735
sg4
F0.00019179133103183735
sg16
F0.00019179133103183735
sg6
F0.00019179133103183735
sg41
F0.00019179133103183735
sg8
F0.00019179133103183735
sg120
F0.00019179133103183735
sg11
F0.00019179133103183735
sg12
F0.00019179133103183735
sg65
F0.00019179133103183735
sg14
F0.00019179133103183735
sS'NN'
p320
F0.0009589566551591868
sg5
F0.00019179133103183735
sg17
F0.00019179133103183735
sS'TO'
p321
F0.004794783275795934
sg9
F0.00019179133103183735
sS'RB'
p322
F0.007096279248177982
sg50
F0.00019179133103183735
sS'PRP'
p323
F0.0011507479861910242
sS'VB'
p324
F0.9334484081319524
sg24
F0.00019179133103183735
sg25
F0.00019179133103183735
sg26
F0.00019179133103183735
sg27
F0.00019179133103183735
sg28
F0.00019179133103183735
sg29
F0.00019179133103183735
sS'CD'
p325
F0.04181051016494054
sg31
F0.00019179133103183735
sS'IN'
p326
F0.0003835826620636747
sg33
F0.00019179133103183735
sg34
F0.00019179133103183735
sg35
F0.00019179133103183735
sS'UH'
p327
F0.005370157268891446
sg22
F0.00019179133103183735
ssS'HYPH'
p328
(dp329
g3
F0.0012091898428053204
sS'VBG'
p330
F0.08464328899637243
sS'FW'
p331
F0.1003627569528416
sg6
F0.0012091898428053204
sg41
F0.0012091898428053204
sg8
F0.0012091898428053204
sS'JJ'
p332
F0.0036275695284159614
sg11
F0.0012091898428053204
sg12
F0.0012091898428053204
sg65
F0.0012091898428053204
sS'RP'
p333
F0.012091898428053204
sS'NN'
p334
F0.6880290205562273
sg16
F0.0012091898428053204
sg17
F0.0012091898428053204
sg18
F0.0012091898428053204
sg19
F0.0012091898428053204
sg20
F0.0012091898428053204
sS'NNS'
p335
F0.02539298669891173
sg9
F0.0012091898428053204
sg23
F0.0012091898428053204
sg24
F0.0012091898428053204
sg25
F0.0012091898428053204
sg26
F0.0012091898428053204
sg27
F0.0012091898428053204
sg28
F0.0012091898428053204
sg29
F0.0012091898428053204
sg30
F0.0012091898428053204
sg31
F0.0012091898428053204
sg32
F0.0012091898428053204
sg33
F0.0012091898428053204
sg34
F0.0012091898428053204
sg35
F0.0012091898428053204
sg172
F0.0012091898428053204
sS'NNP'
p336
F0.053204353083434096
ssS'RB'
p337
(dp338
g3
F0.00016561775422325274
sS'VBG'
p339
F0.004306061609804571
sS'FW'
p340
F0.001324942033786022
sS'VBN'
p341
F0.006955945677376615
sS'VBP'
p342
F0.028817489234845974
sS'WDT'
p343
F0.005299768135144088
sS'JJ'
p344
F0.14988406757204373
sS'WP'
p345
F0.004306061609804571
sS'VBZ'
p346
F0.016230539913878766
sS'DT'
p347
F0.043226233852268967
sg14
F0.00016561775422325274
sS'NN'
p348
F0.023352103345478634
sS'VBD'
p349
F0.005299768135144088
sg17
F0.00016561775422325274
sS'TO'
p350
F0.003146737330241802
sS'PRP'
p351
F0.10897648227890029
sS'RB'
p352
F0.12901623053991387
sS'NNS'
p353
F0.001324942033786022
sS'HYPH'
p354
F0.012255713812520701
sS'VB'
p355
F0.18482941371315004
sS'WRB'
p356
F0.007949652202716132
sS'CC'
p357
F0.005796621397813845
sg26
F0.00016561775422325274
sg27
F0.00016561775422325274
sS'RBS'
p358
F0.0003312355084465055
sS'RBR'
p359
F0.001324942033786022
sg30
F0.05382577012255714
sS'EX'
p360
F0.0011593242795627692
sS'IN'
p361
F0.11576681020205366
sS'MD'
p362
F0.012586949320967208
sg34
F0.00016561775422325274
sS'JJR'
p363
F0.028817489234845974
sS'UH'
p364
F0.041073203047366676
sS'NNP'
p365
F0.00182179529645578
ssS'NNS'
p366
(dp367
g3
F0.00016874789065136686
sS'VBG'
p368
F0.005399932500843739
sS'FW'
p369
F0.0003374957813027337
sS'VBN'
p370
F0.002362470469119136
sS'VBP'
p371
F0.061592980087748904
sS'WDT'
p372
F0.017043536955788054
sS'JJ'
p373
F0.022949713128585892
sS'WP'
p374
F0.012993587580155248
sS'VBZ'
p375
F0.02733715828552143
sS'DT'
p376
F0.0539993250084374
sS'RP'
p377
F0.0016874789065136687
sS'NN'
p378
F0.03678704016199798
sS'VBD'
p379
F0.0030374620317246033
sg17
F0.01231859601754978
sS'TO'
p380
F0.0026999662504218697
sS'PRP'
p381
F0.1829227134660817
sS'RB'
p382
F0.0890988862639217
sS'NNS'
p383
F0.007256159298008775
sS'HYPH'
p384
F0.0020249746878164025
sS'VB'
p385
F0.043874451569355384
sS'WRB'
p386
F0.01940600742490719
sS'CC'
p387
F0.044380695241309484
sg26
F0.00016874789065136686
sg27
F0.00016874789065136686
sg28
F0.00016874789065136686
sg29
F0.00016874789065136686
sS'CD'
p388
F0.01619979750253122
sS'EX'
p389
F0.0018562267971650355
sS'IN'
p390
F0.2163347958150523
sS'MD'
p391
F0.015018562267971651
sg34
F0.00016874789065136686
sS'JJR'
p392
F0.010124873439082012
sS'UH'
p393
F0.08977387782652717
sg22
F0.00016874789065136686
ssS'NNP'
p394
(dp395
g3
F0.0012903225806451613
sg4
F0.0012903225806451613
sS'VBD'
p396
F0.00903225806451613
sS'VBN'
p397
F0.005161290322580645
sS'VBP'
p398
F0.0064516129032258064
sg8
F0.0012903225806451613
sS'JJ'
p399
F0.0025806451612903226
sS'WP'
p400
F0.01032258064516129
sS'VBZ'
p401
F0.05290322580645161
sS'DT'
p402
F0.027096774193548386
sg14
F0.0012903225806451613
sS'NN'
p403
F0.07096774193548387
sg29
F0.0012903225806451613
sS'FW'
p404
F0.01806451612903226
sS'POS'
p405
F0.2761290322580645
sS'TO'
p406
F0.014193548387096775
sS'HYPH'
p407
F0.027096774193548386
sS'RB'
p408
F0.04903225806451613
sg50
F0.0012903225806451613
sS'NNP'
p409
F0.05806451612903226
sS'VB'
p410
F0.016774193548387096
sS'WRB'
p411
F0.011612903225806452
sS'CC'
p412
F0.12
sg26
F0.0012903225806451613
sg27
F0.0012903225806451613
sg28
F0.0012903225806451613
sS'PRP'
p413
F0.11096774193548387
sS'CD'
p414
F0.0025806451612903226
sg31
F0.0012903225806451613
sS'IN'
p415
F0.03741935483870968
sS'MD'
p416
F0.005161290322580645
sg34
F0.0012903225806451613
sg35
F0.0012903225806451613
sS'UH'
p417
F0.05290322580645161
ssS'VB'
p418
(dp419
S'PRP$'
p420
F0.000962000962000962
sS'VBG'
p421
F0.006184291898577613
sS'VBD'
p422
F0.0002748574177145606
sS'VBN'
p423
F0.005634577063148492
sS'VBP'
p424
F0.0020614306328592042
sS'WDT'
p425
F0.0008245722531436817
sS'JJ'
p426
F0.055383769669483954
sg11
F0.005497148354291211
sS'VBZ'
p427
F0.0020614306328592042
sS'DT'
p428
F0.12025012025012025
sg14
F0.060812203669346525
sS'NN'
p429
F0.08252593966879682
sg5
F6.871435442864014e-05
sS'POS'
p430
F0.000962000962000962
sg18
F0.1732288875146018
sS'HYPH'
p431
F0.0006871435442864014
sg20
F0.04727547584690442
sS'NNS'
p432
F0.0094138665567237
sS'NNP'
p433
F0.001992716278430564
sS'VB'
p434
F0.0037105751391465678
sg24
F0.006596578025149453
sS'CC'
p435
F0.006940149797292654
sg26
F6.871435442864014e-05
sS'PDT'
p436
F0.001443001443001443
sg28
F6.871435442864014e-05
sS'PRP'
p437
F0.18154332440046725
sS'RBR'
p438
F0.0010307153164296021
sg31
F6.871435442864014e-05
sg32
F0.14416271559128702
sS'CD'
p439
F0.02343159486016629
sS'MD'
p440
F0.0013055727341441626
sS'JJS'
p441
F0.0008932866075723219
sg35
F0.03621246478389335
sS'UH'
p442
F0.016422730708444994
ssg24
(dp443
g3
F0.0008503401360544217
sg4
F0.0008503401360544217
sS'VBD'
p444
F0.0017006802721088435
sg6
F0.0008503401360544217
sS'VBP'
p445
F0.025510204081632654
sg8
F0.0008503401360544217
sS'JJ'
p446
F0.10714285714285714
sg11
F0.0008503401360544217
sS'VBZ'
p447
F0.19387755102040816
sS'DT'
p448
F0.007653061224489796
sg14
F0.0008503401360544217
sS'NN'
p449
F0.00510204081632653
sg5
F0.0008503401360544217
sg17
F0.0008503401360544217
sS'TO'
p450
F0.011054421768707483
sg9
F0.0008503401360544217
sS'RB'
p451
F0.06292517006802721
sS'NNS'
p452
F0.003401360544217687
sS'PRP'
p453
F0.08673469387755102
sS'VB'
p454
F0.016156462585034014
sS'WRB'
p455
F0.004251700680272109
sg25
F0.0008503401360544217
sg26
F0.0008503401360544217
sg27
F0.0008503401360544217
sg28
F0.0008503401360544217
sg29
F0.0008503401360544217
sg30
F0.0008503401360544217
sS'EX'
p456
F0.01445578231292517
sS'IN'
p457
F0.3010204081632653
sS'MD'
p458
F0.14285714285714285
sg34
F0.0008503401360544217
sg35
F0.0008503401360544217
sg172
F0.0008503401360544217
sg22
F0.0008503401360544217
ssS'CC'
p459
(dp460
S'PRP$'
p461
F0.01908566355969818
sS'VBG'
p462
F0.0039946737683089215
sS'VBD'
p463
F0.006213936972924989
sg6
F0.0004438526409232135
sg41
F0.0004438526409232135
sg8
F0.0004438526409232135
sg9
F0.0004438526409232135
sS'JJ'
p464
F0.08610741233910342
sg11
F0.0004438526409232135
sS'VBZ'
p465
F0.0039946737683089215
sS'DT'
p466
F0.08788282290279627
sg14
F0.0004438526409232135
sS'NN'
p467
F0.09764758100310697
sg5
F0.0004438526409232135
sg17
F0.0004438526409232135
sg18
F0.0004438526409232135
sS'PRP'
p468
F0.22592099422991566
sS'RB'
p469
F0.10874389702618731
sS'NNS'
p470
F0.05015534842432313
sS'NNP'
p471
F0.023968042609853527
sS'VB'
p472
F0.02174877940523746
sS'WRB'
p473
F0.004882379050155349
sS'CC'
p474
F0.004882379050155349
sg26
F0.0004438526409232135
sg27
F0.0004438526409232135
sg28
F0.0004438526409232135
sg29
F0.0004438526409232135
sS'CD'
p475
F0.10031069684864626
sg31
F0.0004438526409232135
sS'IN'
p476
F0.044829116733244564
sS'MD'
p477
F0.010652463382157125
sg34
F0.0004438526409232135
sS'JJR'
p478
F0.033288948069241014
sS'UH'
p479
F0.05903240124278739
ssg26
(dp480
g3
F0.023255813953488372
sg4
F0.023255813953488372
sg5
F0.023255813953488372
sg6
F0.023255813953488372
sg41
F0.023255813953488372
sg8
F0.023255813953488372
sg120
F0.023255813953488372
sg11
F0.023255813953488372
sg12
F0.023255813953488372
sg65
F0.023255813953488372
sg14
F0.023255813953488372
sg141
F0.023255813953488372
sg16
F0.023255813953488372
sg17
F0.023255813953488372
sg18
F0.023255813953488372
sS'HYPH'
p481
F0.23255813953488372
sg20
F0.023255813953488372
sg50
F0.023255813953488372
sg22
F0.023255813953488372
sg23
F0.023255813953488372
sg24
F0.023255813953488372
sg25
F0.023255813953488372
sg26
F0.023255813953488372
sg27
F0.023255813953488372
sg28
F0.023255813953488372
sg19
F0.023255813953488372
sg29
F0.023255813953488372
sg31
F0.023255813953488372
sg32
F0.023255813953488372
sg30
F0.023255813953488372
sg33
F0.023255813953488372
sg34
F0.023255813953488372
sg35
F0.023255813953488372
sg172
F0.023255813953488372
ssg27
(dp482
g3
F0.006329113924050633
sg4
F0.006329113924050633
sg5
F0.006329113924050633
sg6
F0.006329113924050633
sg41
F0.006329113924050633
sg8
F0.006329113924050633
sg120
F0.006329113924050633
sg11
F0.006329113924050633
sg12
F0.006329113924050633
sS'DT'
p483
F0.7911392405063291
sg14
F0.006329113924050633
sg141
F0.006329113924050633
sg16
F0.006329113924050633
sg17
F0.006329113924050633
sg18
F0.006329113924050633
sg9
F0.006329113924050633
sg20
F0.006329113924050633
sg50
F0.006329113924050633
sg22
F0.006329113924050633
sg23
F0.006329113924050633
sg24
F0.006329113924050633
sg25
F0.006329113924050633
sg26
F0.006329113924050633
sg27
F0.006329113924050633
sg28
F0.006329113924050633
sg19
F0.006329113924050633
sg29
F0.006329113924050633
sg31
F0.006329113924050633
sg32
F0.006329113924050633
sg30
F0.006329113924050633
sg33
F0.006329113924050633
sg34
F0.006329113924050633
sg35
F0.006329113924050633
sg172
F0.006329113924050633
ssS'RBS'
p484
(dp485
g3
F0.013157894736842105
sg4
F0.013157894736842105
sg16
F0.013157894736842105
sg6
F0.013157894736842105
sg41
F0.013157894736842105
sg8
F0.013157894736842105
sS'JJ'
p486
F0.25
sg11
F0.013157894736842105
sg12
F0.013157894736842105
sS'DT'
p487
F0.10526315789473684
sg14
F0.013157894736842105
sg141
F0.013157894736842105
sg29
F0.013157894736842105
sg5
F0.013157894736842105
sg17
F0.013157894736842105
sg18
F0.013157894736842105
sg9
F0.013157894736842105
sS'RB'
p488
F0.2236842105263158
sg50
F0.013157894736842105
sg22
F0.013157894736842105
sg23
F0.013157894736842105
sg24
F0.013157894736842105
sg25
F0.013157894736842105
sg26
F0.013157894736842105
sg27
F0.013157894736842105
sg28
F0.013157894736842105
sg19
F0.013157894736842105
sS'CD'
p489
F0.02631578947368421
sg31
F0.013157894736842105
sg32
F0.013157894736842105
sg33
F0.013157894736842105
sg34
F0.013157894736842105
sg35
F0.013157894736842105
sg172
F0.013157894736842105
ssS'PRP'
p490
(dp491
g3
F7.702973347712218e-05
sS'VBG'
p492
F0.001386535202588199
sg16
F0.030734863657371745
sS'VBN'
p493
F0.00046217840086273303
sg41
F0.32152210753350796
sS'WDT'
p494
F0.0010784162686797104
sS'JJ'
p495
F0.011246341087659836
sS'WP'
p496
F0.001309505469111077
sg12
F0.024803574179633338
sS'DT'
p497
F0.036358034201201664
sS'RP'
p498
F0.0006162378678169774
sS'NN'
p499
F0.013249114158065014
sg5
F7.702973347712218e-05
sg17
F7.702973347712218e-05
sS'TO'
p500
F0.005700200277307041
sS'LS'
p501
F0.0006932676012940995
sS'RB'
p502
F0.02095208750577723
sS'NNS'
p503
F0.001386535202588199
sS'HYPH'
p504
F0.00038514866738561084
sS'VB'
p505
F0.1493606532121399
sS'WRB'
p506
F0.0015405946695424434
sS'CC'
p507
F0.0007702973347712217
sg27
F0.001309505469111077
sg28
F7.702973347712218e-05
sS'RBR'
p508
F0.025959020181790173
sS'CD'
p509
F0.00023108920043136651
sS'PRP'
p510
F0.009551686951163148
sg31
F7.702973347712218e-05
sS'IN'
p511
F0.0476043752888615
sg33
F0.2721460483746726
sg34
F7.702973347712218e-05
sS'JJR'
p512
F0.010321984285934371
sS'UH'
p513
F0.008781389616391928
sg22
F7.702973347712218e-05
ssS'RBR'
p514
(dp515
g3
F0.002150537634408602
sg4
F0.002150537634408602
sg16
F0.002150537634408602
sg6
F0.002150537634408602
sg41
F0.002150537634408602
sg8
F0.002150537634408602
sS'JJ'
p516
F0.13333333333333333
sg11
F0.002150537634408602
sg12
F0.002150537634408602
sg65
F0.002150537634408602
sg14
F0.002150537634408602
sg141
F0.002150537634408602
sg5
F0.002150537634408602
sg17
F0.002150537634408602
sg18
F0.002150537634408602
sS'PRP'
p517
F0.034408602150537634
sS'RB'
p518
F0.025806451612903226
sg50
F0.002150537634408602
sg9
F0.002150537634408602
sS'VB'
p519
F0.008602150537634409
sg24
F0.002150537634408602
sS'CC'
p520
F0.015053763440860216
sg26
F0.002150537634408602
sg27
F0.002150537634408602
sg28
F0.002150537634408602
sg29
F0.002150537634408602
sg30
F0.002150537634408602
sg31
F0.002150537634408602
sS'IN'
p521
F0.7225806451612903
sg33
F0.002150537634408602
sg34
F0.002150537634408602
sg35
F0.002150537634408602
sg172
F0.002150537634408602
sg22
F0.002150537634408602
ssS'EX'
p522
(dp523
g3
F0.002105263157894737
sg4
F0.002105263157894737
sS'VBD'
p524
F0.04631578947368421
sg6
F0.002105263157894737
sS'VBP'
p525
F0.014736842105263158
sg8
F0.002105263157894737
sg9
F0.002105263157894737
sS'JJ'
p526
F0.05263157894736842
sg11
F0.002105263157894737
sS'VBZ'
p527
F0.1031578947368421
sS'DT'
p528
F0.6652631578947369
sg14
F0.002105263157894737
sS'NN'
p529
F0.02526315789473684
sg5
F0.002105263157894737
sg17
F0.002105263157894737
sg18
F0.002105263157894737
sg19
F0.002105263157894737
sS'RB'
p530
F0.021052631578947368
sg50
F0.002105263157894737
sg22
F0.002105263157894737
sg23
F0.002105263157894737
sg24
F0.002105263157894737
sg25
F0.002105263157894737
sg26
F0.002105263157894737
sg27
F0.002105263157894737
sg28
F0.002105263157894737
sg29
F0.002105263157894737
sg30
F0.002105263157894737
sg31
F0.002105263157894737
sg32
F0.002105263157894737
sg33
F0.002105263157894737
sg34
F0.002105263157894737
sg35
F0.002105263157894737
sS'UH'
p531
F0.016842105263157894
ssS'IN'
p532
(dp533
S'PRP$'
p534
F0.010744608911263056
sS'VBG'
p535
F0.016229619054774963
sS'VBD'
p536
F0.000751371252535878
sS'VBN'
p537
F0.0004508227515215268
sS'VBP'
p538
F0.0006010970020287024
sS'WDT'
p539
F0.000751371252535878
sg9
F7.51371252535878e-05
sS'JJ'
p540
F0.07250732586971223
sS'WP'
p541
F0.002554662258621985
sS'VBZ'
p542
F0.0001502742505071756
sg65
F0.20820497407769178
sg14
F7.51371252535878e-05
sS'NN'
p543
F0.3326320534976332
sg5
F0.0065369298970621385
sg17
F7.51371252535878e-05
sS'TO'
p544
F0.005184461642497558
sS'PRP'
p545
F0.038319933879329776
sS'RB'
p546
F0.01194680291532046
sS'NNS'
p547
F0.057029078067473135
sg22
F0.03073108422871741
sS'VB'
p548
F0.0019535652565932826
sS'WRB'
p549
F0.0002254113757607634
sg25
F7.51371252535878e-05
sg26
F7.51371252535878e-05
sS'PDT'
p550
F0.0062363813960477875
sg484
F0.0006010970020287024
sS'RBR'
p551
F0.001051919753550229
sS'CD'
p552
F0.14892178225261102
sS'EX'
p553
F0.000751371252535878
sS'IN'
p554
F0.010519197535502291
sS'MD'
p555
F0.0001502742505071756
sS'JJS'
p556
F0.008039672402133895
sS'JJR'
p557
F0.005409873018258321
sS'UH'
p558
F0.02043729806897588
ssS'CD'
p559
(dp560
g3
F0.00023860653781913624
sg4
F0.00023860653781913624
sg5
F0.00023860653781913624
sg6
F0.00023860653781913624
sS'VBP'
p561
F0.003101884991648771
sS'WDT'
p562
F0.0021474588403722263
sg120
F0.00023860653781913624
sg11
F0.00023860653781913624
sS'VBZ'
p563
F0.003101884991648771
sS'DT'
p564
F0.0023860653781913625
sg14
F0.00023860653781913624
sS'NN'
p565
F0.0816034359341446
sg16
F0.00023860653781913624
sg17
F0.00023860653781913624
sS'TO'
p566
F0.02290622763063708
sg9
F0.00023860653781913624
sg20
F0.00023860653781913624
sS'NNS'
p567
F0.7368169887854927
sS'PRP'
p568
F0.008589835361488905
sS'VB'
p569
F0.0004772130756382725
sS'WRB'
p570
F0.0004772130756382725
sS'CC'
p571
F0.046766881412550705
sg26
F0.00023860653781913624
sg27
F0.00023860653781913624
sg28
F0.00023860653781913624
sg29
F0.00023860653781913624
sS'CD'
p572
F0.07015032211882606
sg31
F0.00023860653781913624
sS'IN'
p573
F0.010021474588403722
sg33
F0.00023860653781913624
sg34
F0.00023860653781913624
sg35
F0.00023860653781913624
sS'UH'
p574
F0.006680983058935815
sg22
F0.00023860653781913624
ssS'MD'
p575
(dp576
g3
F0.00020044097013429546
sg4
F0.00020044097013429546
sS'VBD'
p577
F0.0006013229104028864
sg6
F0.00020044097013429546
sg41
F0.00020044097013429546
sg8
F0.00020044097013429546
sg120
F0.00020044097013429546
sg11
F0.00020044097013429546
sg12
F0.00020044097013429546
sS'DT'
p578
F0.0010022048506714773
sg14
F0.00020044097013429546
sg141
F0.00020044097013429546
sg5
F0.00020044097013429546
sg17
F0.00020044097013429546
sS'TO'
p579
F0.0020044097013429546
sg9
F0.00020044097013429546
sS'RB'
p580
F0.025255562236921228
sg50
F0.00020044097013429546
sS'PRP'
p581
F0.17298055722589697
sg23
F0.7907396271797955
sS'WRB'
p582
F0.0010022048506714773
sg25
F0.00020044097013429546
sg26
F0.00020044097013429546
sg27
F0.00020044097013429546
sg28
F0.00020044097013429546
sg29
F0.00020044097013429546
sg30
F0.00020044097013429546
sg31
F0.00020044097013429546
sg32
F0.00020044097013429546
sS'MD'
p583
F0.0010022048506714773
sg34
F0.00020044097013429546
sg35
F0.00020044097013429546
sS'UH'
p584
F0.0004008819402685909
sg22
F0.00020044097013429546
ssS'JJS'
p585
(dp586
g3
F0.002531645569620253
sg4
F0.002531645569620253
sg5
F0.002531645569620253
sg6
F0.002531645569620253
sS'VBP'
p587
F0.007594936708860759
sg8
F0.002531645569620253
sS'JJ'
p588
F0.11139240506329114
sS'WP'
p589
F0.007594936708860759
sg12
F0.002531645569620253
sg65
F0.002531645569620253
sg14
F0.002531645569620253
sS'NN'
p590
F0.2936708860759494
sg16
F0.002531645569620253
sg17
F0.002531645569620253
sg18
F0.002531645569620253
sg9
F0.002531645569620253
sS'RB'
p591
F0.060759493670886074
sS'NNS'
p592
F0.043037974683544304
sS'PRP'
p593
F0.010126582278481013
sS'VB'
p594
F0.007594936708860759
sg24
F0.002531645569620253
sg25
F0.002531645569620253
sg26
F0.002531645569620253
sg27
F0.002531645569620253
sg28
F0.002531645569620253
sg29
F0.002531645569620253
sS'CD'
p595
F0.28607594936708863
sg31
F0.002531645569620253
sS'IN'
p596
F0.035443037974683546
sS'MD'
p597
F0.02278481012658228
sS'JJS'
p598
F0.017721518987341773
sg35
F0.002531645569620253
sS'UH'
p599
F0.043037974683544304
sg22
F0.002531645569620253
ssS'JJR'
p600
(dp601
g3
F0.0005824111822947001
sg4
F0.0005824111822947001
sS'VBD'
p602
F0.0011648223645894002
sg6
F0.0005824111822947001
sS'VBP'
p603
F0.0052417006406523005
sg8
F0.0005824111822947001
sS'JJ'
p604
F0.0023296447291788003
sS'WP'
p605
F0.0011648223645894002
sg12
F0.0005824111822947001
sS'DT'
p606
F0.0011648223645894002
sS'RP'
p607
F0.0023296447291788003
sS'NN'
p608
F0.15841584158415842
sg5
F0.0005824111822947001
sS'POS'
p609
F0.004076878276062901
sS'TO'
p610
F0.0029120559114735
sS'PRP'
p611
F0.019801980198019802
sS'RB'
p612
F0.0029120559114735
sS'NNS'
p613
F0.008736167734420501
sg9
F0.0005824111822947001
sS'VB'
p614
F0.004659289458357601
sS'WRB'
p615
F0.0052417006406523005
sg25
F0.0005824111822947001
sg26
F0.0005824111822947001
sg27
F0.0005824111822947001
sg28
F0.0005824111822947001
sg29
F0.0005824111822947001
sg30
F0.0005824111822947001
sg31
F0.0005824111822947001
sS'IN'
p616
F0.7303436225975539
sS'MD'
p617
F0.007571345369831101
sS'JJS'
p618
F0.009900990099009901
sS'JJR'
p619
F0.009900990099009901
sS'UH'
p620
F0.013395457192778102
sg22
F0.0005824111822947001
ssS'UH'
p621
(dp622
g3
F0.008496577767288176
sS'VBG'
p623
F0.006844465423648808
sS'FW'
p624
F0.0018881283927307056
sS'VBN'
p625
F0.001180080245456691
sS'VBP'
p626
F0.02076941232003776
sS'WDT'
p627
F0.004720320981826764
sS'JJ'
p628
F0.07198489497285815
sS'WP'
p629
F0.024781685154590512
sS'VBZ'
p630
F0.003540240736370073
sS'DT'
p631
F0.05192353080009441
sS'RP'
p632
F0.0014160962945480293
sS'NN'
p633
F0.07670521595468492
sS'VBD'
p634
F0.0014160962945480293
sS'POS'
p635
F0.0018881283927307056
sS'TO'
p636
F0.021005428369129102
sS'PRP'
p637
F0.2150106207222091
sS'RB'
p638
F0.04932735426008968
sS'NNS'
p639
F0.00660844937455747
sg9
F0.0002360160490913382
sS'VB'
p640
F0.17488789237668162
sS'WRB'
p641
F0.02336558886004248
sS'CC'
p642
F0.010148690110927543
sg26
F0.0002360160490913382
sg27
F0.0002360160490913382
sg28
F0.0002360160490913382
sS'RBR'
p643
F0.001180080245456691
sS'CD'
p644
F0.03493037526551806
sS'EX'
p645
F0.0028321925890960587
sS'IN'
p646
F0.04130280859098419
sS'MD'
p647
F0.024781685154590512
sS'JJS'
p648
F0.0014160962945480293
sS'JJR'
p649
F0.01038470616001888
sS'UH'
p650
F0.10408307764928015
sg22
F0.0002360160490913382
ss.